target datalayout = "e-m:e-p270:32:32-p271:32:32-p272:64:64-i64:64-i128:128-f80:128-n8:16:32:64-S128"
target triple = "x86_64-pc-linux-gnu"

%struct.SDL_AtomicInt = type { i32 }
%struct.SDL_JoystickDriver = type { ptr, ptr, ptr, ptr, ptr, ptr, ptr, ptr, ptr, ptr, ptr, ptr, ptr, ptr, ptr, ptr, ptr, ptr, ptr, ptr, ptr }

@SDL_joysticks_initialized = internal global i8 0, align 1
@SDL_joystick_lock_pending = internal global %struct.SDL_AtomicInt zeroinitializer, align 4
@SDL_joystick_lock = internal global ptr null, align 8
@SDL_joysticks_locked = internal global i32 0, align 4
@SDL_joystick_drivers = internal global [3 x ptr] [ptr @SDL_HIDAPI_JoystickDriver, ptr @SDL_LINUX_JoystickDriver, ptr @SDL_VIRTUAL_JoystickDriver], align 16

; Function Attrs: nounwind uwtable
define hidden void @SDL_UnlockJoysticks_REAL() #0 {
  %1 = alloca i8, align 1
  %2 = alloca ptr, align 8
  call void @llvm.lifetime.start.p0(i64 1, ptr %1) #7
  store i8 0, ptr %1, align 1
  %3 = load i32, ptr @SDL_joysticks_locked, align 4
  %4 = add nsw i32 %3, -1
  store i32 %4, ptr @SDL_joysticks_locked, align 4
  %5 = load i8, ptr @SDL_joysticks_initialized, align 1, !range !3, !noundef !4
  %6 = trunc i8 %5 to i1
  br i1 %6, label %15, label %7

7:                                                ; preds = %0
  %8 = load i32, ptr @SDL_joysticks_locked, align 4
  %9 = icmp ne i32 %8, 0
  br i1 %9, label %14, label %10

10:                                               ; preds = %7
  %11 = call i32 @SDL_GetAtomicInt_REAL(ptr noundef @SDL_joystick_lock_pending)
  %12 = icmp eq i32 %11, 0
  br i1 %12, label %13, label %14

13:                                               ; preds = %10
  store i8 1, ptr %1, align 1
  br label %14

14:                                               ; preds = %13, %10, %7
  br label %15

15:                                               ; preds = %14, %0
  %16 = load i8, ptr %1, align 1, !range !3, !noundef !4
  %17 = trunc i8 %16 to i1
  br i1 %17, label %18, label %24

18:                                               ; preds = %15
  call void @llvm.lifetime.start.p0(i64 8, ptr %2) #7
  %19 = load ptr, ptr @SDL_joystick_lock, align 8
  store ptr %19, ptr %2, align 8
  %20 = load ptr, ptr %2, align 8
  call void @SDL_LockMutex_REAL(ptr noundef %20)
  %21 = load ptr, ptr @SDL_joystick_lock, align 8
  call void @SDL_UnlockMutex_REAL(ptr noundef %21)
  store ptr null, ptr @SDL_joystick_lock, align 8
  %22 = load ptr, ptr %2, align 8
  call void @SDL_UnlockMutex_REAL(ptr noundef %22)
  %23 = load ptr, ptr %2, align 8
  call void @SDL_DestroyMutex_REAL(ptr noundef %23)
  call void @llvm.lifetime.end.p0(i64 8, ptr %2) #7
  br label %26

24:                                               ; preds = %15
  %25 = load ptr, ptr @SDL_joystick_lock, align 8
  call void @SDL_UnlockMutex_REAL(ptr noundef %25)
  br label %26

26:                                               ; preds = %24, %18
  call void @llvm.lifetime.end.p0(i64 1, ptr %1) #7
  ret void
}

; Function Attrs: nounwind uwtable
define hidden void @SDL_LockJoysticks_REAL() #0 {
  %1 = call i32 @SDL_AddAtomicInt_REAL(ptr noundef @SDL_joystick_lock_pending, i32 noundef 1)
  %2 = load ptr, ptr @SDL_joystick_lock, align 8
  call void @SDL_LockMutex_REAL(ptr noundef %2)
  %3 = call i32 @SDL_AddAtomicInt_REAL(ptr noundef @SDL_joystick_lock_pending, i32 noundef -1)
  %4 = load i32, ptr @SDL_joysticks_locked, align 4
  %5 = add nsw i32 %4, 1
  store i32 %5, ptr @SDL_joysticks_locked, align 4
  ret void
}

; Function Attrs: nounwind uwtable
define hidden zeroext i1 @SDL_JoystickHandledByAnotherDriver(ptr noundef %0, i16 noundef zeroext %1, i16 noundef zeroext %2, i16 noundef zeroext %3, ptr noundef %4) #0 {
  %6 = alloca ptr, align 8
  %7 = alloca i16, align 2
  %8 = alloca i16, align 2
  %9 = alloca i16, align 2
  %10 = alloca ptr, align 8
  %11 = alloca i32, align 4
  %12 = alloca i8, align 1
  store ptr %0, ptr %6, align 8
  store i16 %1, ptr %7, align 2
  store i16 %2, ptr %8, align 2
  store i16 %3, ptr %9, align 2
  store ptr %4, ptr %10, align 8
  call void @llvm.lifetime.start.p0(i64 4, ptr %11) #7
  call void @llvm.lifetime.start.p0(i64 1, ptr %12) #7
  store i8 0, ptr %12, align 1
  call void @SDL_LockJoysticks_REAL()
  store i32 0, ptr %11, align 4
  br label %13

13:                                               ; preds = %39, %5
  %14 = load i32, ptr %11, align 4
  %15 = sext i32 %14 to i64
  %16 = icmp ult i64 %15, 3
  br i1 %16, label %17, label %42

17:                                               ; preds = %13
  %18 = load ptr, ptr %6, align 8
  %19 = load i32, ptr %11, align 4
  %20 = sext i32 %19 to i64
  %21 = getelementptr inbounds [3 x ptr], ptr @SDL_joystick_drivers, i64 0, i64 %20
  %22 = load ptr, ptr %21, align 8
  %23 = icmp eq ptr %18, %22
  br i1 %23, label %24, label %25

24:                                               ; preds = %17
  br label %42

25:                                               ; preds = %17
  %26 = load i32, ptr %11, align 4
  %27 = sext i32 %26 to i64
  %28 = getelementptr inbounds [3 x ptr], ptr @SDL_joystick_drivers, i64 0, i64 %27
  %29 = load ptr, ptr %28, align 8
  %30 = getelementptr inbounds nuw %struct.SDL_JoystickDriver, ptr %29, i32 0, i32 3
  %31 = load ptr, ptr %30, align 8
  %32 = load i16, ptr %7, align 2
  %33 = load i16, ptr %8, align 2
  %34 = load i16, ptr %9, align 2
  %35 = load ptr, ptr %10, align 8
  %36 = call zeroext i1 %31(i16 noundef zeroext %32, i16 noundef zeroext %33, i16 noundef zeroext %34, ptr noundef %35)
  br i1 %36, label %37, label %38

37:                                               ; preds = %25
  store i8 1, ptr %12, align 1
  br label %42

38:                                               ; preds = %25
  br label %39

39:                                               ; preds = %38
  %40 = load i32, ptr %11, align 4
  %41 = add nsw i32 %40, 1
  store i32 %41, ptr %11, align 4
  br label %13, !llvm.loop !10

42:                                               ; preds = %37, %24, %13
  call void @SDL_UnlockJoysticks_REAL()
  %43 = load i8, ptr %12, align 1, !range !3, !noundef !4
  %44 = trunc i8 %43 to i1
  call void @llvm.lifetime.end.p0(i64 1, ptr %12) #7
  call void @llvm.lifetime.end.p0(i64 4, ptr %11) #7
  ret i1 %44
}