; Function Attrs: nounwind uwtable
define hidden noundef zeroext i1 @SDL_JoystickHandledByAnotherDriver(ptr noundef readnone captures(address) %0, i16 noundef zeroext %1, i16 noundef zeroext %2, i16 noundef zeroext %3, ptr noundef %4) local_unnamed_addr #1 {
  %6 = tail call i32 @SDL_AddAtomicInt_REAL(ptr noundef nonnull @SDL_joystick_lock_pending, i32 noundef 1) #13
  %7 = load ptr, ptr @SDL_joystick_lock, align 8
  tail call void @SDL_LockMutex_REAL(ptr noundef %7) #13
  %8 = tail call i32 @SDL_AddAtomicInt_REAL(ptr noundef nonnull @SDL_joystick_lock_pending, i32 noundef -1) #13
  %9 = load i32, ptr @SDL_joysticks_locked, align 4
  %10 = add nsw i32 %9, 1
  store i32 %10, ptr @SDL_joysticks_locked, align 4
  br label %12

11:                                               ; preds = %16
  %indvars.iv.next = add nuw nsw i64 %indvars.iv, 1
  %exitcond.not = icmp eq i64 %indvars.iv.next, 3
  br i1 %exitcond.not, label %20, label %12, !llvm.loop !8

12:                                               ; preds = %5, %11
  %indvars.iv = phi i64 [ 0, %5 ], [ %indvars.iv.next, %11 ]
  %13 = getelementptr inbounds nuw [3 x ptr], ptr @SDL_joystick_drivers, i64 0, i64 %indvars.iv
  %14 = load ptr, ptr %13, align 8
  %15 = icmp eq ptr %0, %14
  br i1 %15, label %20, label %16

16:                                               ; preds = %12
  %17 = getelementptr inbounds nuw i8, ptr %14, i64 24
  %18 = load ptr, ptr %17, align 8
  %19 = tail call zeroext i1 %18(i16 noundef zeroext %1, i16 noundef zeroext %2, i16 noundef zeroext %3, ptr noundef %4) #13
  br i1 %19, label %20, label %11

20:                                               ; preds = %16, %12, %11
  %.0 = phi i1 [ false, %12 ], [ false, %11 ], [ true, %16 ]
  %21 = load i32, ptr @SDL_joysticks_locked, align 4
  %22 = add nsw i32 %21, -1
  store i32 %22, ptr @SDL_joysticks_locked, align 4
  %.b4.i = load i1, ptr @SDL_joysticks_initialized, align 1
  %23 = icmp ne i32 %22, 0
  %or.cond.i = select i1 %.b4.i, i1 true, i1 %23
  br i1 %or.cond.i, label %.critedge.i, label %24

24:                                               ; preds = %20
  %25 = tail call i32 @SDL_GetAtomicInt_REAL(ptr noundef nonnull @SDL_joystick_lock_pending) #13
  %26 = icmp eq i32 %25, 0
  br i1 %26, label %27, label %.critedge.i

27:                                               ; preds = %24
  %28 = load ptr, ptr @SDL_joystick_lock, align 8
  tail call void @SDL_LockMutex_REAL(ptr noundef %28) #13
  %29 = load ptr, ptr @SDL_joystick_lock, align 8
  tail call void @SDL_UnlockMutex_REAL(ptr noundef %29) #13
  store ptr null, ptr @SDL_joystick_lock, align 8
  tail call void @SDL_UnlockMutex_REAL(ptr noundef %28) #13
  tail call void @SDL_DestroyMutex_REAL(ptr noundef %28) #13
  br label %SDL_UnlockJoysticks_REAL.exit

.critedge.i:                                      ; preds = %24, %20
  %30 = load ptr, ptr @SDL_joystick_lock, align 8
  tail call void @SDL_UnlockMutex_REAL(ptr noundef %30) #13
  br label %SDL_UnlockJoysticks_REAL.exit

SDL_UnlockJoysticks_REAL.exit:                    ; preds = %27, %.critedge.i
  ret i1 %.0
}